; Function Attrs: mustprogress uwtable
define internal noundef i32 @_ZL20compareStringLengthsPKvS0_S0_(ptr readnone captures(none) %0, ptr noundef readonly captures(none) %1, ptr noundef readonly captures(none) %2) #7 {
  %4 = load ptr, ptr %1, align 8, !tbaa !150
  %5 = load ptr, ptr %2, align 8, !tbaa !150
  %6 = getelementptr inbounds nuw i8, ptr %4, i64 120
  %7 = load ptr, ptr %6, align 8, !tbaa !63
  %8 = icmp ne ptr %7, null
  %9 = zext i1 %8 to i32
  %10 = getelementptr inbounds nuw i8, ptr %5, i64 120
  %11 = load ptr, ptr %10, align 8, !tbaa !63
  %12 = icmp ne ptr %11, null
  %.neg = sext i1 %12 to i32
  %13 = add nsw i32 %.neg, %9
  %.not = icmp eq i32 %13, 0
  br i1 %.not, label %14, label %52

14:                                               ; preds = %3
  %15 = getelementptr inbounds nuw i8, ptr %4, i64 64
  %16 = load i16, ptr %15, align 8, !tbaa !4
  %17 = icmp slt i16 %16, 0
  %18 = ashr i16 %16, 5
  %19 = sext i16 %18 to i32
  %20 = getelementptr inbounds nuw i8, ptr %4, i64 68
  %21 = load i32, ptr %20, align 4
  %22 = select i1 %17, i32 %21, i32 %19
  %23 = getelementptr inbounds nuw i8, ptr %5, i64 64
  %24 = load i16, ptr %23, align 8, !tbaa !4
  %25 = icmp slt i16 %24, 0
  %26 = ashr i16 %24, 5
  %27 = sext i16 %26 to i32
  %28 = getelementptr inbounds nuw i8, ptr %5, i64 68
  %29 = load i32, ptr %28, align 4
  %30 = select i1 %25, i32 %29, i32 %27
  %31 = sub nsw i32 %22, %30
  %.not19 = icmp eq i32 %31, 0
  br i1 %.not19, label %32, label %52

32:                                               ; preds = %14
  %33 = getelementptr inbounds nuw i8, ptr %5, i64 136
  %34 = load i32, ptr %33, align 8, !tbaa !103
  %35 = getelementptr inbounds nuw i8, ptr %4, i64 136
  %36 = load i32, ptr %35, align 8, !tbaa !103
  %37 = sub nsw i32 %34, %36
  %.not20 = icmp eq i32 %37, 0
  br i1 %.not20, label %38, label %52

38:                                               ; preds = %32
  %39 = and i16 %24, 1
  %.not.i.i = icmp eq i16 %39, 0
  br i1 %.not.i.i, label %.sink.split.i.i.i, label %40

40:                                               ; preds = %38
  %41 = trunc i16 %16 to i8
  %42 = and i8 %41, 1
  %43 = xor i8 %42, 1
  br label %_ZNK6icu_7713UnicodeString7compareERKS0_.exit

.sink.split.i.i.i:                                ; preds = %38
  %44 = getelementptr inbounds nuw i8, ptr %4, i64 56
  %spec.select.i.i = tail call i32 @llvm.smin.i32(i32 %30, i32 0)
  %.010.i.i = tail call i32 @llvm.smax.i32(i32 %30, i32 0)
  %45 = and i16 %24, 2
  %.not.i.i.i = icmp eq i16 %45, 0
  %46 = getelementptr inbounds nuw i8, ptr %5, i64 66
  %47 = getelementptr inbounds nuw i8, ptr %5, i64 80
  %48 = load ptr, ptr %47, align 8
  %49 = select i1 %.not.i.i.i, ptr %48, ptr %46
  %50 = tail call noundef signext i8 @_ZNK6icu_7713UnicodeString9doCompareEiiPKDsii(ptr noundef nonnull align 8 dereferenceable(64) %44, i32 noundef 0, i32 noundef %22, ptr noundef %49, i32 noundef %spec.select.i.i, i32 noundef %.010.i.i)
  br label %_ZNK6icu_7713UnicodeString7compareERKS0_.exit

_ZNK6icu_7713UnicodeString7compareERKS0_.exit:    ; preds = %40, %.sink.split.i.i.i
  %.0.i.i = phi i8 [ %43, %40 ], [ %50, %.sink.split.i.i.i ]
  %51 = sext i8 %.0.i.i to i32
  br label %52

52:                                               ; preds = %32, %14, %3, %_ZNK6icu_7713UnicodeString7compareERKS0_.exit
  %.0 = phi i32 [ %51, %_ZNK6icu_7713UnicodeString7compareERKS0_.exit ], [ %13, %3 ], [ %31, %14 ], [ %37, %32 ]
  ret i32 %.0
}